; Function Attrs: mustprogress nofree norecurse nosync nounwind willreturn memory(readwrite, inaccessiblemem: none) uwtable
define void @nk_layout_row_template_push_dynamic(ptr noundef readonly captures(address_is_null) %0) local_unnamed_addr #23 {
  %.not = icmp eq ptr %0, null
  br i1 %.not, label %20, label %2

2:                                                ; preds = %1
  %3 = getelementptr inbounds nuw i8, ptr %0, i64 18520
  %4 = load ptr, ptr %3, align 8, !tbaa !824
  %.not12 = icmp eq ptr %4, null
  br i1 %.not12, label %20, label %5

5:                                                ; preds = %2
  %6 = getelementptr inbounds nuw i8, ptr %4, i64 168
  %7 = load ptr, ptr %6, align 8, !tbaa !825
  %.not13 = icmp eq ptr %7, null
  br i1 %.not13, label %20, label %8

8:                                                ; preds = %5
  %9 = getelementptr inbounds nuw i8, ptr %7, i64 112
  %10 = load i32, ptr %9, align 8, !tbaa !1001
  %.not14 = icmp eq i32 %10, 8
  br i1 %.not14, label %11, label %20

11:                                               ; preds = %8
  %12 = getelementptr inbounds nuw i8, ptr %7, i64 128
  %13 = load i32, ptr %12, align 8, !tbaa !921
  %14 = icmp sgt i32 %13, 15
  br i1 %14, label %20, label %15

15:                                               ; preds = %11
  %16 = getelementptr inbounds nuw i8, ptr %7, i64 180
  %17 = add nsw i32 %13, 1
  store i32 %17, ptr %12, align 8, !tbaa !921
  %18 = sext i32 %13 to i64
  %19 = getelementptr inbounds [16 x float], ptr %16, i64 0, i64 %18
  store float -1.000000e+00, ptr %19, align 4, !tbaa !3
  br label %20

20:                                               ; preds = %11, %8, %1, %2, %5, %15
  ret void
}